EXPORTS
??0INI_Reader@@QAE@XZ
??1INI_Reader@@QAE@XZ
?open@INI_Reader@@QAE_NPBD_N@Z
?read_header@INI_Reader@@QAE_NXZ
?is_header@INI_Reader@@QAE_NPBD@Z
?get_header_ptr@INI_Reader@@QAEPBDXZ
?read_value@INI_Reader@@QAE_NXZ
?is_value@INI_Reader@@QAE_NPBD@Z
?get_value_string@INI_Reader@@QAEPBDI@Z
?get_value_bool@INI_Reader@@QAE_NI@Z
?get_value_float@INI_Reader@@QAEMI@Z
?get_value_int@INI_Reader@@QAEHI@Z
?get_name_ptr@INI_Reader@@QAEPBDXZ
?close@INI_Reader@@QAEXXZ

?FindFirst@CEquipManager@@QBEPBVCEquip@@I@Z
?get_throttle@CShip@@QBEMXZ
?is_using_tradelane@CShip@@QBE_NXZ
?shiparch@CShip@@QBEPBUShip@Archetype@@XZ
?get_radius@EngineObject@@QBE?BMXZ
?get_orientation@EngineObject@@QBEABVMatrix@@XZ
?IsTriggered@FuseAction@@UBE_NXZ
?cast@CEEngine@@SAPBV1@PBVCEquip@@@Z
?is_base@CEqObj@@QBE_NXZ
?is_dynamic@CSolar@@QBE_NXZ
?is_waypoint@CSolar@@QBE_NXZ
?solararch@CSolar@@QBEPBUSolar@Archetype@@XZ
?CheckForSync@CRemotePhysicsSimulation@@QAE_NABVVector@@0ABVQuaternion@@@Z
?SinglePlayer@@YA_NXZ
?GetProjectilesPerFire@CELauncher@@QBEIXZ
?get_script_index@Root@Archetype@@QBEHXZ
?get_archetype@CObject@@QBEPAURoot@Archetype@@XZ
?IsMPServer@@YA_NXZ

??0CEquipTraverser@@QAE@H@Z
?Traverse@CEquipManager@@QAEPAVCEquip@@AAVCEquipTraverser@@@Z
?cast@CELightEquip@@SAPAV1@PAVCEquip@@@Z

?GetBehaviorManager@@YAPAVIBehaviorManager@@PAUIObjRW@@@Z

?CreateID@@YAIPBD@Z

?GetInfocard@Vibe@Reputation@@YAHABHAAI@Z

?get_undamaged_collision_group_list@EqObj@Archetype@@QBE_NAAV?$list@UCollisionGroupDesc@@V?$allocator@UCollisionGroupDesc@@@std@@@std@@@Z
